; Function Attrs: nounwind sspstrong uwtable
define internal range(i64 0, 21) i64 @addrinfo_ipv6_v4compat_p(i64 noundef %0) #0 {
  %2 = tail call ptr @rb_check_typeddata(i64 noundef %0, ptr noundef nonnull @addrinfo_type) #21
  %.not.i.i = icmp eq ptr %2, null
  br i1 %.not.i.i, label %3, label %get_addrinfo.exit.i

3:                                                ; preds = %1
  %4 = load i64, ptr @rb_eTypeError, align 8, !tbaa !35
  tail call void (i64, ptr, ...) @rb_raise(i64 noundef %4, ptr noundef nonnull @.str.101) #23
  unreachable

get_addrinfo.exit.i:                              ; preds = %1
  %5 = getelementptr inbounds nuw i8, ptr %2, i64 28
  %6 = load i32, ptr %5, align 4, !tbaa !118
  %7 = icmp ugt i32 %6, 1
  br i1 %7, label %ai_get_afamily.exit.i, label %.critedge

ai_get_afamily.exit.i:                            ; preds = %get_addrinfo.exit.i
  %8 = getelementptr inbounds nuw i8, ptr %2, i64 32
  %9 = load i16, ptr %8, align 2, !tbaa !91
  %.fr.i = freeze i16 %9
  %.not.i = icmp eq i16 %.fr.i, 10
  br i1 %.not.i, label %extract_in6_addr.exit, label %.critedge

extract_in6_addr.exit:                            ; preds = %ai_get_afamily.exit.i
  %10 = getelementptr inbounds nuw i8, ptr %2, i64 40
  %11 = load i32, ptr %10, align 4, !tbaa !49
  %12 = icmp eq i32 %11, 0
  br i1 %12, label %13, label %.critedge

13:                                               ; preds = %extract_in6_addr.exit
  %14 = getelementptr inbounds nuw i8, ptr %2, i64 44
  %15 = load i32, ptr %14, align 4, !tbaa !49
  %16 = icmp eq i32 %15, 0
  br i1 %16, label %17, label %.critedge

17:                                               ; preds = %13
  %18 = getelementptr inbounds nuw i8, ptr %2, i64 48
  %19 = load i32, ptr %18, align 4, !tbaa !49
  %20 = icmp eq i32 %19, 0
  br i1 %20, label %21, label %.critedge

21:                                               ; preds = %17
  %22 = getelementptr inbounds nuw i8, ptr %2, i64 52
  %23 = load i32, ptr %22, align 4, !tbaa !49
  %24 = tail call noundef i32 @llvm.bswap.i32(i32 %23)
  %25 = icmp ugt i32 %24, 1
  br i1 %25, label %26, label %.critedge

.critedge:                                        ; preds = %ai_get_afamily.exit.i, %get_addrinfo.exit.i, %17, %13, %extract_in6_addr.exit, %21
  br label %26

26:                                               ; preds = %21, %.critedge
  %.0 = phi i64 [ 0, %.critedge ], [ 20, %21 ]
  ret i64 %.0
}